target datalayout = "e-m:e-p270:32:32-p271:32:32-p272:64:64-i64:64-i128:128-f80:128-n8:16:32:64-S128"
target triple = "x86_64-pc-linux-gnu"

%struct.nk_vec2 = type { float, float }
%struct.nk_allocator = type { %union.nk_handle, ptr, ptr }
%union.nk_handle = type { ptr }
%struct.nk_buffer = type { [2 x %struct.nk_buffer_marker], %struct.nk_allocator, i32, %struct.nk_memory, float, i64, i64, i64, i64 }
%struct.nk_buffer_marker = type { i32, i64 }
%struct.nk_memory = type { ptr, i64 }
%struct.nk_str = type { %struct.nk_buffer, i32 }
%struct.nk_clipboard = type { %union.nk_handle, ptr, ptr }
%struct.nk_text_edit = type { %struct.nk_clipboard, %struct.nk_str, ptr, %struct.nk_vec2, i32, i32, i32, i8, i8, i8, i8, i8, i8, i8, float, %struct.nk_text_undo_state }
%struct.nk_text_undo_state = type { [99 x %struct.nk_text_undo_record], [999 x i32], i16, i16, i16, i16 }
%struct.nk_text_undo_record = type { i32, i16, i16, i16 }

; Function Attrs: nounwind uwtable
define internal void @nk_zero(ptr noundef %0, i64 noundef %1) #0 {
  %3 = alloca ptr, align 8
  %4 = alloca i64, align 8
  store ptr %0, ptr %3, align 8, !tbaa !46
  store i64 %1, ptr %4, align 8, !tbaa !73
  %5 = load ptr, ptr %3, align 8, !tbaa !46
  %6 = load i64, ptr %4, align 8, !tbaa !73
  call void @nk_memset(ptr noundef %5, i32 noundef 0, i64 noundef %6)
  ret void
}

; Function Attrs: nounwind uwtable
define void @nk_buffer_init_fixed(ptr noundef %0, ptr noundef %1, i64 noundef %2) #0 {
  %4 = alloca ptr, align 8
  %5 = alloca ptr, align 8
  %6 = alloca i64, align 8
  store ptr %0, ptr %4, align 8, !tbaa !68
  store ptr %1, ptr %5, align 8, !tbaa !46
  store i64 %2, ptr %6, align 8, !tbaa !73
  %7 = load ptr, ptr %4, align 8, !tbaa !68
  %8 = icmp ne ptr %7, null
  br i1 %8, label %9, label %15

9:                                                ; preds = %3
  %10 = load ptr, ptr %5, align 8, !tbaa !46
  %11 = icmp ne ptr %10, null
  br i1 %11, label %12, label %15

12:                                               ; preds = %9
  %13 = load i64, ptr %6, align 8, !tbaa !73
  %14 = icmp ne i64 %13, 0
  br i1 %14, label %16, label %15

15:                                               ; preds = %12, %9, %3
  br label %31

16:                                               ; preds = %12
  %17 = load ptr, ptr %4, align 8, !tbaa !68
  call void @nk_zero(ptr noundef %17, i64 noundef 120)
  %18 = load ptr, ptr %4, align 8, !tbaa !68
  %19 = getelementptr inbounds nuw %struct.nk_buffer, ptr %18, i32 0, i32 2
  store i32 0, ptr %19, align 8, !tbaa !77
  %20 = load ptr, ptr %5, align 8, !tbaa !46
  %21 = load ptr, ptr %4, align 8, !tbaa !68
  %22 = getelementptr inbounds nuw %struct.nk_buffer, ptr %21, i32 0, i32 3
  %23 = getelementptr inbounds nuw %struct.nk_memory, ptr %22, i32 0, i32 0
  store ptr %20, ptr %23, align 8, !tbaa !80
  %24 = load i64, ptr %6, align 8, !tbaa !73
  %25 = load ptr, ptr %4, align 8, !tbaa !68
  %26 = getelementptr inbounds nuw %struct.nk_buffer, ptr %25, i32 0, i32 3
  %27 = getelementptr inbounds nuw %struct.nk_memory, ptr %26, i32 0, i32 1
  store i64 %24, ptr %27, align 8, !tbaa !81
  %28 = load i64, ptr %6, align 8, !tbaa !73
  %29 = load ptr, ptr %4, align 8, !tbaa !68
  %30 = getelementptr inbounds nuw %struct.nk_buffer, ptr %29, i32 0, i32 8
  store i64 %28, ptr %30, align 8, !tbaa !82
  br label %31

31:                                               ; preds = %16, %15
  ret void
}

; Function Attrs: nounwind uwtable
define <2 x float> @nk_vec2(float noundef %0, float noundef %1) #2 {
  %3 = alloca %struct.nk_vec2, align 4
  %4 = alloca float, align 4
  %5 = alloca float, align 4
  store float %0, ptr %4, align 4, !tbaa !4
  store float %1, ptr %5, align 4, !tbaa !4
  %6 = load float, ptr %4, align 4, !tbaa !4
  %7 = getelementptr inbounds nuw %struct.nk_vec2, ptr %3, i32 0, i32 0
  store float %6, ptr %7, align 4, !tbaa !15
  %8 = load float, ptr %5, align 4, !tbaa !4
  %9 = getelementptr inbounds nuw %struct.nk_vec2, ptr %3, i32 0, i32 1
  store float %8, ptr %9, align 4, !tbaa !17
  %10 = load <2 x float>, ptr %3, align 4
  ret <2 x float> %10
}

; Function Attrs: nounwind uwtable
define void @nk_str_init_fixed(ptr noundef %0, ptr noundef %1, i64 noundef %2) #0 {
  %4 = alloca ptr, align 8
  %5 = alloca ptr, align 8
  %6 = alloca i64, align 8
  store ptr %0, ptr %4, align 8, !tbaa !107
  store ptr %1, ptr %5, align 8, !tbaa !46
  store i64 %2, ptr %6, align 8, !tbaa !73
  %7 = load ptr, ptr %4, align 8, !tbaa !107
  %8 = getelementptr inbounds nuw %struct.nk_str, ptr %7, i32 0, i32 0
  %9 = load ptr, ptr %5, align 8, !tbaa !46
  %10 = load i64, ptr %6, align 8, !tbaa !73
  call void @nk_buffer_init_fixed(ptr noundef %8, ptr noundef %9, i64 noundef %10)
  %11 = load ptr, ptr %4, align 8, !tbaa !107
  %12 = getelementptr inbounds nuw %struct.nk_str, ptr %11, i32 0, i32 1
  store i32 0, ptr %12, align 8, !tbaa !109
  ret void
}

; Function Attrs: nounwind uwtable
define internal void @nk_textedit_clear_state(ptr noundef %0, i32 noundef %1, ptr noundef %2) #2 {
  %4 = alloca ptr, align 8
  %5 = alloca i32, align 4
  %6 = alloca ptr, align 8
  %7 = alloca %struct.nk_vec2, align 4
  store ptr %0, ptr %4, align 8, !tbaa !1325
  store i32 %1, ptr %5, align 4, !tbaa !13
  store ptr %2, ptr %6, align 8, !tbaa !46
  %8 = load ptr, ptr %4, align 8, !tbaa !1325
  %9 = getelementptr inbounds nuw %struct.nk_text_edit, ptr %8, i32 0, i32 15
  %10 = getelementptr inbounds nuw %struct.nk_text_undo_state, ptr %9, i32 0, i32 2
  store i16 0, ptr %10, align 8, !tbaa !1334
  %11 = load ptr, ptr %4, align 8, !tbaa !1325
  %12 = getelementptr inbounds nuw %struct.nk_text_edit, ptr %11, i32 0, i32 15
  %13 = getelementptr inbounds nuw %struct.nk_text_undo_state, ptr %12, i32 0, i32 4
  store i16 0, ptr %13, align 4, !tbaa !1357
  %14 = load ptr, ptr %4, align 8, !tbaa !1325
  %15 = getelementptr inbounds nuw %struct.nk_text_edit, ptr %14, i32 0, i32 15
  %16 = getelementptr inbounds nuw %struct.nk_text_undo_state, ptr %15, i32 0, i32 3
  store i16 99, ptr %16, align 2, !tbaa !1358
  %17 = load ptr, ptr %4, align 8, !tbaa !1325
  %18 = getelementptr inbounds nuw %struct.nk_text_edit, ptr %17, i32 0, i32 15
  %19 = getelementptr inbounds nuw %struct.nk_text_undo_state, ptr %18, i32 0, i32 5
  store i16 999, ptr %19, align 2, !tbaa !1359
  %20 = load ptr, ptr %4, align 8, !tbaa !1325
  %21 = getelementptr inbounds nuw %struct.nk_text_edit, ptr %20, i32 0, i32 5
  store i32 0, ptr %21, align 4, !tbaa !1329
  %22 = load ptr, ptr %4, align 8, !tbaa !1325
  %23 = getelementptr inbounds nuw %struct.nk_text_edit, ptr %22, i32 0, i32 6
  store i32 0, ptr %23, align 8, !tbaa !1330
  %24 = load ptr, ptr %4, align 8, !tbaa !1325
  %25 = getelementptr inbounds nuw %struct.nk_text_edit, ptr %24, i32 0, i32 4
  store i32 0, ptr %25, align 8, !tbaa !1331
  %26 = load ptr, ptr %4, align 8, !tbaa !1325
  %27 = getelementptr inbounds nuw %struct.nk_text_edit, ptr %26, i32 0, i32 10
  store i8 0, ptr %27, align 1, !tbaa !1327
  %28 = load ptr, ptr %4, align 8, !tbaa !1325
  %29 = getelementptr inbounds nuw %struct.nk_text_edit, ptr %28, i32 0, i32 14
  store float 0.000000e+00, ptr %29, align 4, !tbaa !1360
  %30 = load ptr, ptr %4, align 8, !tbaa !1325
  %31 = getelementptr inbounds nuw %struct.nk_text_edit, ptr %30, i32 0, i32 8
  store i8 0, ptr %31, align 1, !tbaa !1361
  %32 = load ptr, ptr %4, align 8, !tbaa !1325
  %33 = getelementptr inbounds nuw %struct.nk_text_edit, ptr %32, i32 0, i32 9
  store i8 1, ptr %33, align 2, !tbaa !1362
  %34 = load i32, ptr %5, align 4, !tbaa !13
  %35 = icmp eq i32 %34, 0
  %36 = zext i1 %35 to i32
  %37 = trunc i32 %36 to i8
  %38 = load ptr, ptr %4, align 8, !tbaa !1325
  %39 = getelementptr inbounds nuw %struct.nk_text_edit, ptr %38, i32 0, i32 11
  store i8 %37, ptr %39, align 8, !tbaa !1335
  %40 = load ptr, ptr %4, align 8, !tbaa !1325
  %41 = getelementptr inbounds nuw %struct.nk_text_edit, ptr %40, i32 0, i32 7
  store i8 0, ptr %41, align 4, !tbaa !1333
  %42 = load ptr, ptr %6, align 8, !tbaa !46
  %43 = load ptr, ptr %4, align 8, !tbaa !1325
  %44 = getelementptr inbounds nuw %struct.nk_text_edit, ptr %43, i32 0, i32 2
  store ptr %42, ptr %44, align 8, !tbaa !1336
  %45 = load ptr, ptr %4, align 8, !tbaa !1325
  %46 = getelementptr inbounds nuw %struct.nk_text_edit, ptr %45, i32 0, i32 3
  call void @llvm.lifetime.start.p0(i64 8, ptr %7) #10
  %47 = call <2 x float> @nk_vec2(float noundef 0.000000e+00, float noundef 0.000000e+00)
  store <2 x float> %47, ptr %7, align 4
  call void @llvm.memcpy.p0.p0.i64(ptr align 8 %46, ptr align 4 %7, i64 8, i1 false), !tbaa.struct !25
  call void @llvm.lifetime.end.p0(i64 8, ptr %7) #10
  ret void
}

; Function Attrs: nounwind uwtable
define internal void @nk_memset(ptr noundef %0, i32 noundef %1, i64 noundef %2) #0 {
  %4 = alloca ptr, align 8
  %5 = alloca i32, align 4
  %6 = alloca i64, align 8
  %7 = alloca ptr, align 8
  %8 = alloca i32, align 4
  %9 = alloca i64, align 8
  %10 = alloca i32, align 4
  store ptr %0, ptr %4, align 8, !tbaa !46
  store i32 %1, ptr %5, align 4, !tbaa !13
  store i64 %2, ptr %6, align 8, !tbaa !73
  call void @llvm.lifetime.start.p0(i64 8, ptr %7) #10
  %11 = load ptr, ptr %4, align 8, !tbaa !46
  store ptr %11, ptr %7, align 8, !tbaa !26
  call void @llvm.lifetime.start.p0(i64 4, ptr %8) #10
  store i32 0, ptr %8, align 4, !tbaa !13
  call void @llvm.lifetime.start.p0(i64 8, ptr %9) #10
  store i64 0, ptr %9, align 8, !tbaa !73
  %12 = load i32, ptr %5, align 4, !tbaa !13
  %13 = trunc i32 %12 to i8
  %14 = zext i8 %13 to i32
  store i32 %14, ptr %8, align 4, !tbaa !13
  %15 = icmp ne i32 %14, 0
  br i1 %15, label %16, label %25

16:                                               ; preds = %3
  %17 = load i32, ptr %8, align 4, !tbaa !13
  %18 = shl i32 %17, 8
  %19 = load i32, ptr %8, align 4, !tbaa !13
  %20 = or i32 %18, %19
  store i32 %20, ptr %8, align 4, !tbaa !13
  %21 = load i32, ptr %8, align 4, !tbaa !13
  %22 = shl i32 %21, 16
  %23 = load i32, ptr %8, align 4, !tbaa !13
  %24 = or i32 %22, %23
  store i32 %24, ptr %8, align 4, !tbaa !13
  br label %25

25:                                               ; preds = %16, %3
  %26 = load ptr, ptr %4, align 8, !tbaa !46
  store ptr %26, ptr %7, align 8, !tbaa !26
  %27 = load i64, ptr %6, align 8, !tbaa !73
  %28 = icmp ult i64 %27, 12
  br i1 %28, label %29, label %40

29:                                               ; preds = %25
  br label %30

30:                                               ; preds = %34, %29
  %31 = load i64, ptr %6, align 8, !tbaa !73
  %32 = add i64 %31, -1
  store i64 %32, ptr %6, align 8, !tbaa !73
  %33 = icmp ne i64 %31, 0
  br i1 %33, label %34, label %39

34:                                               ; preds = %30
  %35 = load i32, ptr %5, align 4, !tbaa !13
  %36 = trunc i32 %35 to i8
  %37 = load ptr, ptr %7, align 8, !tbaa !26
  %38 = getelementptr inbounds nuw i8, ptr %37, i32 1
  store ptr %38, ptr %7, align 8, !tbaa !26
  store i8 %36, ptr %37, align 1, !tbaa !28
  br label %30, !llvm.loop !708

39:                                               ; preds = %30
  store i32 1, ptr %10, align 4
  br label %90

40:                                               ; preds = %25
  %41 = load ptr, ptr %7, align 8, !tbaa !26
  %42 = ptrtoint ptr %41 to i64
  %43 = and i64 %42, 3
  store i64 %43, ptr %9, align 8, !tbaa !73
  %44 = icmp ne i64 %43, 0
  br i1 %44, label %45, label %61

45:                                               ; preds = %40
  %46 = load i64, ptr %9, align 8, !tbaa !73
  %47 = sub i64 4, %46
  store i64 %47, ptr %9, align 8, !tbaa !73
  %48 = load i64, ptr %9, align 8, !tbaa !73
  %49 = load i64, ptr %6, align 8, !tbaa !73
  %50 = sub i64 %49, %48
  store i64 %50, ptr %6, align 8, !tbaa !73
  br label %51

51:                                               ; preds = %56, %45
  %52 = load i32, ptr %5, align 4, !tbaa !13
  %53 = trunc i32 %52 to i8
  %54 = load ptr, ptr %7, align 8, !tbaa !26
  %55 = getelementptr inbounds nuw i8, ptr %54, i32 1
  store ptr %55, ptr %7, align 8, !tbaa !26
  store i8 %53, ptr %54, align 1, !tbaa !28
  br label %56

56:                                               ; preds = %51
  %57 = load i64, ptr %9, align 8, !tbaa !73
  %58 = add i64 %57, -1
  store i64 %58, ptr %9, align 8, !tbaa !73
  %59 = icmp ne i64 %58, 0
  br i1 %59, label %51, label %60, !llvm.loop !709

60:                                               ; preds = %56
  br label %61

61:                                               ; preds = %60, %40
  %62 = load i64, ptr %6, align 8, !tbaa !73
  %63 = udiv i64 %62, 4
  store i64 %63, ptr %9, align 8, !tbaa !73
  br label %64

64:                                               ; preds = %69, %61
  %65 = load i32, ptr %8, align 4, !tbaa !13
  %66 = load ptr, ptr %7, align 8, !tbaa !26
  store i32 %65, ptr %66, align 4, !tbaa !13
  %67 = load ptr, ptr %7, align 8, !tbaa !26
  %68 = getelementptr inbounds nuw i8, ptr %67, i64 4
  store ptr %68, ptr %7, align 8, !tbaa !26
  br label %69

69:                                               ; preds = %64
  %70 = load i64, ptr %9, align 8, !tbaa !73
  %71 = add i64 %70, -1
  store i64 %71, ptr %9, align 8, !tbaa !73
  %72 = icmp ne i64 %71, 0
  br i1 %72, label %64, label %73, !llvm.loop !710

73:                                               ; preds = %69
  %74 = load i64, ptr %6, align 8, !tbaa !73
  %75 = and i64 %74, 3
  store i64 %75, ptr %9, align 8, !tbaa !73
  %76 = load i64, ptr %9, align 8, !tbaa !73
  %77 = icmp ne i64 %76, 0
  br i1 %77, label %78, label %89

78:                                               ; preds = %73
  br label %79

79:                                               ; preds = %84, %78
  %80 = load i32, ptr %5, align 4, !tbaa !13
  %81 = trunc i32 %80 to i8
  %82 = load ptr, ptr %7, align 8, !tbaa !26
  %83 = getelementptr inbounds nuw i8, ptr %82, i32 1
  store ptr %83, ptr %7, align 8, !tbaa !26
  store i8 %81, ptr %82, align 1, !tbaa !28
  br label %84

84:                                               ; preds = %79
  %85 = load i64, ptr %9, align 8, !tbaa !73
  %86 = add i64 %85, -1
  store i64 %86, ptr %9, align 8, !tbaa !73
  %87 = icmp ne i64 %86, 0
  br i1 %87, label %79, label %88, !llvm.loop !711

88:                                               ; preds = %84
  br label %89

89:                                               ; preds = %88, %73
  store i32 0, ptr %10, align 4
  br label %90

90:                                               ; preds = %89, %39
  call void @llvm.lifetime.end.p0(i64 8, ptr %9) #10
  call void @llvm.lifetime.end.p0(i64 4, ptr %8) #10
  call void @llvm.lifetime.end.p0(i64 8, ptr %7) #10
  %91 = load i32, ptr %10, align 4
  switch i32 %91, label %93 [
    i32 0, label %92
    i32 1, label %92
  ]

92:                                               ; preds = %90, %90
  ret void

93:                                               ; preds = %90
  unreachable
}

; Function Attrs: nounwind uwtable
define void @nk_textedit_init_fixed(ptr noundef %0, ptr noundef %1, i64 noundef %2) #0 {
  %4 = alloca ptr, align 8
  %5 = alloca ptr, align 8
  %6 = alloca i64, align 8
  store ptr %0, ptr %4, align 8, !tbaa !1325
  store ptr %1, ptr %5, align 8, !tbaa !46
  store i64 %2, ptr %6, align 8, !tbaa !73
  %7 = load ptr, ptr %4, align 8, !tbaa !1325
  %8 = icmp ne ptr %7, null
  br i1 %8, label %9, label %15

9:                                                ; preds = %3
  %10 = load ptr, ptr %5, align 8, !tbaa !46
  %11 = icmp ne ptr %10, null
  br i1 %11, label %12, label %15

12:                                               ; preds = %9
  %13 = load i64, ptr %6, align 8, !tbaa !73
  %14 = icmp ne i64 %13, 0
  br i1 %14, label %16, label %15

15:                                               ; preds = %12, %9, %3
  br label %23

16:                                               ; preds = %12
  %17 = load ptr, ptr %4, align 8, !tbaa !1325
  call void @nk_memset(ptr noundef %17, i32 noundef 0, i64 noundef 5384)
  %18 = load ptr, ptr %4, align 8, !tbaa !1325
  call void @nk_textedit_clear_state(ptr noundef %18, i32 noundef 0, ptr noundef null)
  %19 = load ptr, ptr %4, align 8, !tbaa !1325
  %20 = getelementptr inbounds nuw %struct.nk_text_edit, ptr %19, i32 0, i32 1
  %21 = load ptr, ptr %5, align 8, !tbaa !46
  %22 = load i64, ptr %6, align 8, !tbaa !73
  call void @nk_str_init_fixed(ptr noundef %20, ptr noundef %21, i64 noundef %22)
  br label %23

23:                                               ; preds = %16, %15
  ret void
}