; Function Attrs: mustprogress nofree norecurse nosync nounwind willreturn memory(argmem: write) uwtable
define void @nk_textedit_init_fixed(ptr noundef %0, ptr noundef %1, i64 noundef %2) local_unnamed_addr #4 {
  %4 = icmp ne ptr %0, null
  %5 = icmp ne ptr %1, null
  %or.cond = and i1 %4, %5
  %6 = icmp ne i64 %2, 0
  %or.cond3 = and i1 %or.cond, %6
  br i1 %or.cond3, label %7, label %35

7:                                                ; preds = %3
  %8 = ptrtoint ptr %0 to i64
  %9 = and i64 %8, 3
  %.not.i = icmp eq i64 %9, 0
  br i1 %.not.i, label %.loopexit46.i.thread, label %.loopexit46.i

.loopexit46.i.thread:                             ; preds = %7
  tail call void @llvm.memset.p0.i64(ptr noundef nonnull align 4 dereferenceable(5384) %0, i8 0, i64 5376, i1 false), !tbaa !7
  br label %11

.loopexit46.i:                                    ; preds = %7
  %10 = sub nuw nsw i64 4, %9
  tail call void @llvm.memset.p0.i64(ptr noundef nonnull align 1 dereferenceable(1) %0, i8 0, i64 %10, i1 false), !tbaa !9
  %scevgep.i = getelementptr i8, ptr %0, i64 %10
  tail call void @llvm.memset.p0.i64(ptr noundef nonnull align 4 dereferenceable(5380) %scevgep.i, i8 0, i64 5380, i1 false), !tbaa !7
  %scevgep53.i = getelementptr i8, ptr %scevgep.i, i64 5380
  tail call void @llvm.memset.p0.i64(ptr align 1 %scevgep53.i, i8 0, i64 %9, i1 false), !tbaa !9
  br label %11

11:                                               ; preds = %.loopexit46.i, %.loopexit46.i.thread
  %12 = getelementptr inbounds nuw i8, ptr %0, i64 5376
  store i16 0, ptr %12, align 8, !tbaa !1169
  %13 = getelementptr inbounds nuw i8, ptr %0, i64 5380
  store i16 0, ptr %13, align 4, !tbaa !1177
  %14 = getelementptr inbounds nuw i8, ptr %0, i64 5378
  store i16 99, ptr %14, align 2, !tbaa !1178
  %15 = getelementptr inbounds nuw i8, ptr %0, i64 5382
  store i16 999, ptr %15, align 2, !tbaa !1179
  %16 = getelementptr inbounds nuw i8, ptr %0, i64 172
  store i32 0, ptr %16, align 4, !tbaa !1165
  %17 = getelementptr inbounds nuw i8, ptr %0, i64 176
  store i32 0, ptr %17, align 8, !tbaa !1166
  %18 = getelementptr inbounds nuw i8, ptr %0, i64 168
  store i32 0, ptr %18, align 8, !tbaa !1167
  %19 = getelementptr inbounds nuw i8, ptr %0, i64 183
  store i8 0, ptr %19, align 1, !tbaa !1163
  %20 = getelementptr inbounds nuw i8, ptr %0, i64 188
  store float 0.000000e+00, ptr %20, align 4, !tbaa !1180
  %21 = getelementptr inbounds nuw i8, ptr %0, i64 181
  store i8 0, ptr %21, align 1, !tbaa !1181
  %22 = getelementptr inbounds nuw i8, ptr %0, i64 182
  store i8 1, ptr %22, align 2, !tbaa !1182
  %23 = getelementptr inbounds nuw i8, ptr %0, i64 184
  store i8 1, ptr %23, align 8, !tbaa !1170
  %24 = getelementptr inbounds nuw i8, ptr %0, i64 180
  store i8 0, ptr %24, align 4, !tbaa !1168
  %25 = getelementptr inbounds nuw i8, ptr %0, i64 152
  %26 = getelementptr inbounds nuw i8, ptr %0, i64 24
  %27 = ptrtoint ptr %26 to i64
  %28 = and i64 %27, 3
  %.not.i.i.i.i = icmp eq i64 %28, 0
  tail call void @llvm.memset.p0.i64(ptr noundef nonnull align 8 dereferenceable(16) %25, i8 0, i64 16, i1 false)
  br i1 %.not.i.i.i.i, label %.loopexit46.i.i.thread.i.i, label %.loopexit46.i.i.i.i

.loopexit46.i.i.thread.i.i:                       ; preds = %11
  tail call void @llvm.memset.p0.i64(ptr noundef nonnull align 4 dereferenceable(120) %26, i8 0, i64 112, i1 false), !tbaa !7
  br label %nk_str_init_fixed.exit

.loopexit46.i.i.i.i:                              ; preds = %11
  %29 = sub nuw nsw i64 4, %28
  tail call void @llvm.memset.p0.i64(ptr noundef nonnull align 1 dereferenceable(1) %26, i8 0, i64 %29, i1 false), !tbaa !9
  %scevgep.i.i.i.i = getelementptr i8, ptr %26, i64 %29
  tail call void @llvm.memset.p0.i64(ptr noundef nonnull align 4 dereferenceable(116) %scevgep.i.i.i.i, i8 0, i64 116, i1 false), !tbaa !7
  %scevgep53.i.i.i.i = getelementptr i8, ptr %scevgep.i.i.i.i, i64 116
  tail call void @llvm.memset.p0.i64(ptr align 1 %scevgep53.i.i.i.i, i8 0, i64 %28, i1 false), !tbaa !9
  br label %nk_str_init_fixed.exit

nk_str_init_fixed.exit:                           ; preds = %.loopexit46.i.i.thread.i.i, %.loopexit46.i.i.i.i
  %30 = getelementptr inbounds nuw i8, ptr %0, i64 80
  store i32 0, ptr %30, align 8, !tbaa !36
  %31 = getelementptr inbounds nuw i8, ptr %0, i64 88
  store ptr %1, ptr %31, align 8, !tbaa !41
  %32 = getelementptr inbounds nuw i8, ptr %0, i64 96
  store i64 %2, ptr %32, align 8, !tbaa !42
  %33 = getelementptr inbounds nuw i8, ptr %0, i64 136
  store i64 %2, ptr %33, align 8, !tbaa !43
  %34 = getelementptr inbounds nuw i8, ptr %0, i64 144
  store i32 0, ptr %34, align 8, !tbaa !69
  br label %35

35:                                               ; preds = %3, %nk_str_init_fixed.exit
  ret void
}